; ModuleID = 'source-C-CXX/61/671.c'
source_filename = "source-C-CXX/61/671.c"
target datalayout = "e-m:e-p270:32:32-p271:32:32-p272:64:64-i64:64-f80:128-n8:16:32:64-S128"
target triple = "x86_64-pc-linux-gnu"

; Function Attrs: nounwind sspstrong uwtable
define dso_local i32 @main() local_unnamed_addr #0 {
  %1 = alloca [1000 x i8], align 16
  %2 = alloca [1000 x i8], align 16
  %3 = getelementptr inbounds [1000 x i8], [1000 x i8]* %1, i64 0, i64 0
  call void @llvm.lifetime.start.p0i8(i64 1000, i8* nonnull %3) #4
  %4 = getelementptr inbounds [1000 x i8], [1000 x i8]* %2, i64 0, i64 0
  call void @llvm.lifetime.start.p0i8(i64 1000, i8* nonnull %4) #4
  %5 = call i32 (i8*, ...) bitcast (i32 (...)* @gets to i32 (i8*, ...)*)(i8* nonnull %3) #4
  %6 = load i8, i8* %3, align 16, !tbaa !5
  %7 = icmp eq i8 %6, 0
  br i1 %7, label %33, label %8

8:                                                ; preds = %0, %25
  %9 = phi i64 [ %29, %25 ], [ 0, %0 ]
  %10 = phi i8 [ %31, %25 ], [ %6, %0 ]
  %11 = phi i32 [ %28, %25 ], [ undef, %0 ]
  %12 = phi i32 [ %27, %25 ], [ 0, %0 ]
  %13 = icmp ne i8 %10, 32
  %14 = icmp ne i32 %11, 0
  %15 = select i1 %13, i1 %14, i1 false
  %16 = select i1 %15, i32 0, i32 %11
  %17 = icmp eq i8 %10, 32
  %18 = icmp ne i32 %16, 0
  %19 = select i1 %17, i1 %18, i1 false
  br i1 %19, label %25, label %20

20:                                               ; preds = %8
  %21 = sext i32 %12 to i64
  %22 = getelementptr inbounds [1000 x i8], [1000 x i8]* %2, i64 0, i64 %21
  store i8 %10, i8* %22, align 1, !tbaa !5
  %23 = add nsw i32 %12, 1
  %24 = zext i1 %17 to i32
  br label %25

25:                                               ; preds = %8, %20
  %26 = phi i32 [ %24, %20 ], [ 1, %8 ]
  %27 = phi i32 [ %23, %20 ], [ %12, %8 ]
  %28 = add nsw i32 %16, %26
  %29 = add nuw i64 %9, 1
  %30 = getelementptr inbounds [1000 x i8], [1000 x i8]* %1, i64 0, i64 %29
  %31 = load i8, i8* %30, align 1, !tbaa !5
  %32 = icmp eq i8 %31, 0
  br i1 %32, label %33, label %8, !llvm.loop !8

33:                                               ; preds = %25, %0
  %34 = phi i32 [ 0, %0 ], [ %27, %25 ]
  %35 = sext i32 %34 to i64
  %36 = getelementptr inbounds [1000 x i8], [1000 x i8]* %2, i64 0, i64 %35
  store i8 0, i8* %36, align 1, !tbaa !5
  %37 = call i32 @puts(i8* nonnull %4)
  call void @llvm.lifetime.end.p0i8(i64 1000, i8* nonnull %4) #4
  call void @llvm.lifetime.end.p0i8(i64 1000, i8* nonnull %3) #4
  ret i32 0
}

; Function Attrs: argmemonly mustprogress nofree nosync nounwind willreturn
declare void @llvm.lifetime.start.p0i8(i64 immarg, i8* nocapture) #1

declare i32 @gets(...) local_unnamed_addr #2

; Function Attrs: argmemonly mustprogress nofree nosync nounwind willreturn
declare void @llvm.lifetime.end.p0i8(i64 immarg, i8* nocapture) #1

; Function Attrs: nofree nounwind
declare noundef i32 @puts(i8* nocapture noundef readonly) local_unnamed_addr #3


!llvm.module.flags = !{!0, !1, !2, !3}
!llvm.ident = !{!4}

!0 = !{i32 1, !"wchar_size", i32 4}
!1 = !{i32 7, !"PIC Level", i32 2}
!2 = !{i32 7, !"PIE Level", i32 2}
!3 = !{i32 7, !"uwtable", i32 1}
!4 = !{!"clang version 13.0.0"}
!5 = !{!6, !6, i64 0}
!6 = !{!"omnipotent char", !7, i64 0}
!7 = !{!"Simple C/C++ TBAA"}
!8 = distinct !{!8, !9}
!9 = !{!"llvm.loop.mustprogress"}
